target datalayout = "e-m:e-p270:32:32-p271:32:32-p272:64:64-i64:64-i128:128-f80:128-n8:16:32:64-S128"
target triple = "x86_64-pc-linux-gnu"

%struct._packet_info = type { ptr, ptr, i32, i32, %struct.nstime_t, %struct.nstime_t, %struct.nstime_t, i8, ptr, ptr, ptr, ptr, %struct._address, %struct._address, %struct._address, %struct._address, %struct._address, %struct._address, i32, ptr, i8, [3 x i8], %struct.anon, i32, i32, i32, i32, ptr, i8, ptr, ptr, i16, i16, i32, i32, i16, i32, i32, ptr, ptr, ptr, i8, i8, i16, i16, i16, i32, i16, i16, ptr, ptr, ptr, ptr, ptr, i32, i32 }
%struct.nstime_t = type { i64, i32 }
%struct._address = type { i32, i32, ptr, ptr }
%struct.anon = type { i8, [3 x i8] }

@hf_pvfs_distribution = internal global i32 0, align 4
@hf_pvfs_io_dist = internal global i32 0, align 4
@hf_pvfs_strip_size = internal global i32 0, align 4
@ett_pvfs_distribution = internal global i32 0, align 4
@.str.411 = private unnamed_addr constant [14 x i8] c"simple_stripe\00", align 1

; Function Attrs: null_pointer_is_valid sspstrong uwtable
define internal i32 @dissect_pvfs_uint64(ptr noundef %0, ptr noundef %1, i32 noundef %2, i32 noundef %3, ptr noundef %4) #0 {
  %6 = alloca ptr, align 8
  %7 = alloca ptr, align 8
  %8 = alloca i32, align 4
  %9 = alloca i32, align 4
  %10 = alloca ptr, align 8
  %11 = alloca i64, align 8
  store ptr %0, ptr %6, align 8
  store ptr %1, ptr %7, align 8
  store i32 %2, ptr %8, align 4
  store i32 %3, ptr %9, align 4
  store ptr %4, ptr %10, align 8
  call void @llvm.lifetime.start.p0(i64 8, ptr %11) #10
  %12 = load ptr, ptr %6, align 8
  %13 = load i32, ptr %8, align 4
  %14 = call i64 @tvb_get_letoh64(ptr noundef %12, i32 noundef %13)
  store i64 %14, ptr %11, align 8
  %15 = load ptr, ptr %7, align 8
  %16 = load i32, ptr %9, align 4
  %17 = load ptr, ptr %6, align 8
  %18 = load i32, ptr %8, align 4
  %19 = load i64, ptr %11, align 8
  %20 = call ptr @proto_tree_add_uint64(ptr noundef %15, i32 noundef %16, ptr noundef %17, i32 noundef %18, i32 noundef 8, i64 noundef %19)
  %21 = load ptr, ptr %10, align 8
  %22 = icmp ne ptr %21, null
  br i1 %22, label %23, label %26

23:                                               ; preds = %5
  %24 = load i64, ptr %11, align 8
  %25 = load ptr, ptr %10, align 8
  store i64 %24, ptr %25, align 8
  br label %26

26:                                               ; preds = %23, %5
  %27 = load i32, ptr %8, align 4
  %28 = add i32 %27, 8
  call void @llvm.lifetime.end.p0(i64 8, ptr %11) #10
  ret i32 %28
}

; Function Attrs: null_pointer_is_valid sspstrong uwtable
define internal i32 @dissect_pvfs_distribution(ptr noundef %0, ptr noundef %1, i32 noundef %2, ptr noundef %3) #0 {
  %5 = alloca ptr, align 8
  %6 = alloca ptr, align 8
  %7 = alloca i32, align 4
  %8 = alloca ptr, align 8
  %9 = alloca ptr, align 8
  %10 = alloca ptr, align 8
  %11 = alloca i32, align 4
  %12 = alloca ptr, align 8
  %13 = alloca i8, align 1
  %14 = alloca i32, align 4
  store ptr %0, ptr %5, align 8
  store ptr %1, ptr %6, align 8
  store i32 %2, ptr %7, align 4
  store ptr %3, ptr %8, align 8
  call void @llvm.lifetime.start.p0(i64 8, ptr %9) #10
  call void @llvm.lifetime.start.p0(i64 8, ptr %10) #10
  call void @llvm.lifetime.start.p0(i64 4, ptr %11) #10
  call void @llvm.lifetime.start.p0(i64 8, ptr %12) #10
  call void @llvm.lifetime.start.p0(i64 1, ptr %13) #10
  store i8 0, ptr %13, align 1
  call void @llvm.lifetime.start.p0(i64 4, ptr %14) #10
  %15 = load ptr, ptr %5, align 8
  %16 = load i32, ptr %7, align 4
  %17 = call i32 @tvb_get_letohl(ptr noundef %15, i32 noundef %16)
  store i32 %17, ptr %11, align 4
  %18 = load ptr, ptr %8, align 8
  %19 = getelementptr inbounds nuw %struct._packet_info, ptr %18, i32 0, i32 51
  %20 = load ptr, ptr %19, align 8
  %21 = load ptr, ptr %5, align 8
  %22 = load i32, ptr %7, align 4
  %23 = add i32 %22, 4
  %24 = load i32, ptr %11, align 4
  %25 = call ptr @tvb_get_string_enc(ptr noundef %20, ptr noundef %21, i32 noundef %23, i32 noundef %24, i32 noundef 0)
  store ptr %25, ptr %12, align 8
  %26 = load i32, ptr %11, align 4
  %27 = add i32 4, %26
  %28 = add i32 %27, 1
  %29 = add i32 %28, 7
  %30 = and i32 %29, -8
  store i32 %30, ptr %14, align 4
  %31 = load i32, ptr %11, align 4
  %32 = add i32 %31, 1
  %33 = icmp eq i32 %32, 14
  br i1 %33, label %34, label %43

34:                                               ; preds = %4
  %35 = load ptr, ptr %12, align 8
  %36 = load i32, ptr %11, align 4
  %37 = zext i32 %36 to i64
  %38 = call i32 @g_ascii_strncasecmp(ptr noundef %35, ptr noundef @.str.411, i64 noundef %37)
  %39 = icmp eq i32 %38, 0
  br i1 %39, label %40, label %43

40:                                               ; preds = %34
  %41 = load i32, ptr %14, align 4
  %42 = add i32 %41, 8
  store i32 %42, ptr %14, align 4
  store i8 1, ptr %13, align 1
  br label %43

43:                                               ; preds = %40, %34, %4
  %44 = load ptr, ptr %6, align 8
  %45 = load i32, ptr @hf_pvfs_distribution, align 4
  %46 = load ptr, ptr %5, align 8
  %47 = load i32, ptr %7, align 4
  %48 = load i32, ptr %14, align 4
  %49 = add i32 %48, 8
  %50 = load ptr, ptr %12, align 8
  %51 = call ptr @proto_tree_add_string(ptr noundef %44, i32 noundef %45, ptr noundef %46, i32 noundef %47, i32 noundef %49, ptr noundef %50)
  store ptr %51, ptr %9, align 8
  %52 = load ptr, ptr %9, align 8
  %53 = load i32, ptr @ett_pvfs_distribution, align 4
  %54 = call ptr @proto_item_add_subtree(ptr noundef %52, i32 noundef %53)
  store ptr %54, ptr %10, align 8
  %55 = load ptr, ptr %5, align 8
  %56 = load ptr, ptr %10, align 8
  %57 = load i32, ptr @hf_pvfs_io_dist, align 4
  %58 = load i32, ptr %7, align 4
  %59 = load ptr, ptr %8, align 8
  %60 = call i32 @dissect_pvfs_string(ptr noundef %55, ptr noundef %56, i32 noundef %57, i32 noundef %58, ptr noundef %59, ptr noundef null)
  store i32 %60, ptr %7, align 4
  %61 = load i8, ptr %13, align 1
  %62 = icmp ne i8 %61, 0
  br i1 %62, label %63, label %69

63:                                               ; preds = %43
  %64 = load ptr, ptr %5, align 8
  %65 = load ptr, ptr %10, align 8
  %66 = load i32, ptr %7, align 4
  %67 = load i32, ptr @hf_pvfs_strip_size, align 4
  %68 = call i32 @dissect_pvfs_uint64(ptr noundef %64, ptr noundef %65, i32 noundef %66, i32 noundef %67, ptr noundef null)
  store i32 %68, ptr %7, align 4
  br label %69

69:                                               ; preds = %63, %43
  %70 = load i32, ptr %7, align 4
  %71 = add i32 %70, 8
  store i32 %71, ptr %7, align 4
  %72 = load i32, ptr %7, align 4
  call void @llvm.lifetime.end.p0(i64 4, ptr %14) #10
  call void @llvm.lifetime.end.p0(i64 1, ptr %13) #10
  call void @llvm.lifetime.end.p0(i64 8, ptr %12) #10
  call void @llvm.lifetime.end.p0(i64 4, ptr %11) #10
  call void @llvm.lifetime.end.p0(i64 8, ptr %10) #10
  call void @llvm.lifetime.end.p0(i64 8, ptr %9) #10
  ret i32 %72
}