; Function Attrs: null_pointer_is_valid sspstrong uwtable
define internal fastcc i32 @dissect_pvfs_distribution(ptr noundef %0, ptr noundef %1, i32 noundef %2, ptr noundef readonly captures(none) %3) unnamed_addr #0 {
  %5 = tail call i32 @tvb_get_letohl(ptr noundef %0, i32 noundef %2)
  %6 = getelementptr inbounds nuw i8, ptr %3, i64 408
  %7 = load ptr, ptr %6, align 8
  %8 = add i32 %2, 4
  %9 = tail call ptr @tvb_get_string_enc(ptr noundef %7, ptr noundef %0, i32 noundef %8, i32 noundef %5, i32 noundef 0)
  %10 = add i32 %5, 12
  %11 = and i32 %10, -8
  %12 = icmp eq i32 %5, 13
  br i1 %12, label %13, label %17

13:                                               ; preds = %4
  %14 = tail call i32 @g_ascii_strncasecmp(ptr noundef %9, ptr noundef nonnull @.str.411, i64 noundef 13)
  %15 = icmp ne i32 %14, 0
  %16 = add nuw nsw i32 %11, 8
  %spec.select28 = select i1 %15, i32 %11, i32 %16
  br label %17

17:                                               ; preds = %13, %4
  %.not = phi i1 [ true, %4 ], [ %15, %13 ]
  %.0 = phi i32 [ %11, %4 ], [ %spec.select28, %13 ]
  %18 = load i32, ptr @hf_pvfs_distribution, align 4
  %19 = add i32 %.0, 8
  %20 = tail call ptr @proto_tree_add_string(ptr noundef %1, i32 noundef %18, ptr noundef %0, i32 noundef %2, i32 noundef %19, ptr noundef %9)
  %21 = load i32, ptr @ett_pvfs_distribution, align 4
  %22 = tail call ptr @proto_item_add_subtree(ptr noundef %20, i32 noundef %21)
  %23 = load i32, ptr @hf_pvfs_io_dist, align 4
  %24 = tail call fastcc i32 @dissect_pvfs_string(ptr noundef %0, ptr noundef %22, i32 noundef %23, i32 noundef %2, ptr noundef %3)
  br i1 %.not, label %30, label %25

25:                                               ; preds = %17
  %26 = load i32, ptr @hf_pvfs_strip_size, align 4
  %27 = tail call i64 @tvb_get_letoh64(ptr noundef %0, i32 noundef %24)
  %28 = tail call ptr @proto_tree_add_uint64(ptr noundef %22, i32 noundef %26, ptr noundef %0, i32 noundef %24, i32 noundef 8, i64 noundef %27)
  %29 = add i32 %24, 8
  br label %30

30:                                               ; preds = %25, %17
  %.027 = phi i32 [ %29, %25 ], [ %24, %17 ]
  %31 = add i32 %.027, 8
  ret i32 %31
}